target datalayout = "e-m:e-p270:32:32-p271:32:32-p272:64:64-i64:64-i128:128-f80:128-n8:16:32:64-S128"
target triple = "x86_64-pc-linux-gnu"

%struct.pmix_object_t = type { %union.pthread_mutex_t, ptr, i32, %struct.pmix_tma }
%union.pthread_mutex_t = type { %struct.__pthread_mutex_s }
%struct.__pthread_mutex_s = type { i32, i32, i32, i32, i32, i16, i16, %struct.__pthread_internal_list }
%struct.__pthread_internal_list = type { ptr, ptr }
%struct.pmix_tma = type { ptr, ptr, ptr, ptr, ptr, ptr, ptr, ptr }
%struct.pmix_list_t = type { %struct.pmix_object_t, %struct.pmix_list_item_t, i64 }
%struct.pmix_list_item_t = type { %struct.pmix_object_t, ptr, ptr, i32 }
%struct.pmix_proc = type { [256 x i8], i32 }
%struct.pmix_class_t = type { ptr, ptr, ptr, ptr, i32, i32, ptr, ptr, i64 }
%struct.pmix_dmdx_local_t = type { %struct.pmix_list_item_t, %struct.pmix_proc, %struct.pmix_list_t, ptr, i64 }

@.str.86 = private unnamed_addr constant [21 x i8] c"pthread_mutex_lock()\00", align 1

; Function Attrs: inlinehint nounwind uwtable
define internal void @pmix_tma_free(ptr noundef %0, ptr noundef %1) #4 {
  %3 = alloca ptr, align 8
  %4 = alloca ptr, align 8
  store ptr %0, ptr %3, align 8, !tbaa !132
  store ptr %1, ptr %4, align 8, !tbaa !8
  %5 = load ptr, ptr %3, align 8, !tbaa !132
  %6 = icmp ne ptr null, %5
  br i1 %6, label %7, label %13

7:                                                ; preds = %2
  %8 = load ptr, ptr %3, align 8, !tbaa !132
  %9 = getelementptr inbounds nuw %struct.pmix_tma, ptr %8, i32 0, i32 5
  %10 = load ptr, ptr %9, align 8, !tbaa !148
  %11 = load ptr, ptr %3, align 8, !tbaa !132
  %12 = load ptr, ptr %4, align 8, !tbaa !8
  call void %10(ptr noundef %11, ptr noundef %12)
  br label %15

13:                                               ; preds = %2
  %14 = load ptr, ptr %4, align 8, !tbaa !8
  call void @free(ptr noundef %14) #14
  br label %15

15:                                               ; preds = %13, %7
  ret void
}

; Function Attrs: inlinehint nounwind uwtable
define internal void @pmix_obj_run_destructors(ptr noundef %0) #4 {
  %2 = alloca ptr, align 8
  %3 = alloca ptr, align 8
  store ptr %0, ptr %2, align 8, !tbaa !89
  call void @llvm.lifetime.start.p0(i64 8, ptr %3) #14
  %4 = load ptr, ptr %2, align 8, !tbaa !89
  %5 = getelementptr inbounds nuw %struct.pmix_object_t, ptr %4, i32 0, i32 1
  %6 = load ptr, ptr %5, align 8, !tbaa !82
  %7 = getelementptr inbounds nuw %struct.pmix_class_t, ptr %6, i32 0, i32 7
  %8 = load ptr, ptr %7, align 8, !tbaa !146
  store ptr %8, ptr %3, align 8, !tbaa !8
  br label %9

9:                                                ; preds = %13, %1
  %10 = load ptr, ptr %3, align 8, !tbaa !8
  %11 = load ptr, ptr %10, align 8, !tbaa !8
  %12 = icmp ne ptr null, %11
  br i1 %12, label %13, label %19

13:                                               ; preds = %9
  %14 = load ptr, ptr %3, align 8, !tbaa !8
  %15 = load ptr, ptr %14, align 8, !tbaa !8
  %16 = load ptr, ptr %2, align 8, !tbaa !89
  call void %15(ptr noundef %16)
  %17 = load ptr, ptr %3, align 8, !tbaa !8
  %18 = getelementptr inbounds nuw ptr, ptr %17, i32 1
  store ptr %18, ptr %3, align 8, !tbaa !8
  br label %9, !llvm.loop !147

19:                                               ; preds = %9
  call void @llvm.lifetime.end.p0(i64 8, ptr %3) #14
  ret void
}

; Function Attrs: alwaysinline nounwind uwtable
define internal i32 @pmix_obj_update(ptr noundef %0, i32 noundef %1) #6 {
  %3 = alloca ptr, align 8
  %4 = alloca i32, align 4
  %5 = alloca i32, align 4
  store ptr %0, ptr %3, align 8, !tbaa !89
  store i32 %1, ptr %4, align 4, !tbaa !28
  call void @llvm.lifetime.start.p0(i64 4, ptr %5) #14
  %6 = load ptr, ptr %3, align 8, !tbaa !89
  %7 = getelementptr inbounds nuw %struct.pmix_object_t, ptr %6, i32 0, i32 0
  %8 = call i32 @pthread_mutex_lock(ptr noundef %7) #14
  store i32 %8, ptr %5, align 4, !tbaa !28
  %9 = load i32, ptr %5, align 4, !tbaa !28
  %10 = icmp eq i32 %9, 35
  br i1 %10, label %11, label %14

11:                                               ; preds = %2
  %12 = load i32, ptr %5, align 4, !tbaa !28
  %13 = call ptr @__errno_location() #16
  store i32 %12, ptr %13, align 4, !tbaa !28
  call void @perror(ptr noundef @.str.86)
  call void @abort() #17
  unreachable

14:                                               ; preds = %2
  %15 = load i32, ptr %4, align 4, !tbaa !28
  %16 = load ptr, ptr %3, align 8, !tbaa !89
  %17 = getelementptr inbounds nuw %struct.pmix_object_t, ptr %16, i32 0, i32 2
  %18 = load i32, ptr %17, align 8, !tbaa !83
  %19 = add nsw i32 %18, %15
  store i32 %19, ptr %17, align 8, !tbaa !83
  store i32 %19, ptr %5, align 4, !tbaa !28
  %20 = load ptr, ptr %3, align 8, !tbaa !89
  %21 = getelementptr inbounds nuw %struct.pmix_object_t, ptr %20, i32 0, i32 0
  %22 = call i32 @pthread_mutex_unlock(ptr noundef %21) #14
  %23 = load i32, ptr %5, align 4, !tbaa !28
  call void @llvm.lifetime.end.p0(i64 4, ptr %5) #14
  ret i32 %23
}

; Function Attrs: inlinehint nounwind uwtable
define internal ptr @pmix_list_remove_first(ptr noundef %0) #4 {
  %2 = alloca ptr, align 8
  %3 = alloca ptr, align 8
  %4 = alloca ptr, align 8
  %5 = alloca i32, align 4
  store ptr %0, ptr %3, align 8, !tbaa !149
  call void @llvm.lifetime.start.p0(i64 8, ptr %4) #14
  %6 = load ptr, ptr %3, align 8, !tbaa !149
  %7 = getelementptr inbounds nuw %struct.pmix_list_t, ptr %6, i32 0, i32 2
  %8 = load volatile i64, ptr %7, align 8, !tbaa !153
  %9 = icmp eq i64 0, %8
  br i1 %9, label %10, label %11

10:                                               ; preds = %1
  store ptr null, ptr %2, align 8
  store i32 1, ptr %5, align 4
  br label %34

11:                                               ; preds = %1
  %12 = load ptr, ptr %3, align 8, !tbaa !149
  %13 = getelementptr inbounds nuw %struct.pmix_list_t, ptr %12, i32 0, i32 2
  %14 = load volatile i64, ptr %13, align 8, !tbaa !153
  %15 = add i64 %14, -1
  store volatile i64 %15, ptr %13, align 8, !tbaa !153
  %16 = load ptr, ptr %3, align 8, !tbaa !149
  %17 = getelementptr inbounds nuw %struct.pmix_list_t, ptr %16, i32 0, i32 1
  %18 = getelementptr inbounds nuw %struct.pmix_list_item_t, ptr %17, i32 0, i32 1
  %19 = load ptr, ptr %18, align 8, !tbaa !162
  store ptr %19, ptr %4, align 8, !tbaa !151
  %20 = load ptr, ptr %4, align 8, !tbaa !151
  %21 = getelementptr inbounds nuw %struct.pmix_list_item_t, ptr %20, i32 0, i32 2
  %22 = load volatile ptr, ptr %21, align 8, !tbaa !152
  %23 = load ptr, ptr %4, align 8, !tbaa !151
  %24 = getelementptr inbounds nuw %struct.pmix_list_item_t, ptr %23, i32 0, i32 1
  %25 = load volatile ptr, ptr %24, align 8, !tbaa !97
  %26 = getelementptr inbounds nuw %struct.pmix_list_item_t, ptr %25, i32 0, i32 2
  store volatile ptr %22, ptr %26, align 8, !tbaa !152
  %27 = load ptr, ptr %4, align 8, !tbaa !151
  %28 = getelementptr inbounds nuw %struct.pmix_list_item_t, ptr %27, i32 0, i32 1
  %29 = load volatile ptr, ptr %28, align 8, !tbaa !97
  %30 = load ptr, ptr %3, align 8, !tbaa !149
  %31 = getelementptr inbounds nuw %struct.pmix_list_t, ptr %30, i32 0, i32 1
  %32 = getelementptr inbounds nuw %struct.pmix_list_item_t, ptr %31, i32 0, i32 1
  store ptr %29, ptr %32, align 8, !tbaa !162
  %33 = load ptr, ptr %4, align 8, !tbaa !151
  store ptr %33, ptr %2, align 8
  store i32 1, ptr %5, align 4
  br label %34

34:                                               ; preds = %11, %10
  call void @llvm.lifetime.end.p0(i64 8, ptr %4) #14
  %35 = load ptr, ptr %2, align 8
  ret ptr %35
}

; Function Attrs: nounwind uwtable
define internal void @lmdes(ptr noundef %0) #0 {
  %2 = alloca ptr, align 8
  %3 = alloca ptr, align 8
  %4 = alloca ptr, align 8
  store ptr %0, ptr %2, align 8, !tbaa !8
  %5 = load ptr, ptr %2, align 8, !tbaa !8
  %6 = getelementptr inbounds nuw %struct.pmix_dmdx_local_t, ptr %5, i32 0, i32 3
  %7 = load ptr, ptr %6, align 8, !tbaa !460
  %8 = icmp ne ptr null, %7
  br i1 %8, label %9, label %20

9:                                                ; preds = %1
  br label %10

10:                                               ; preds = %9
  %11 = load ptr, ptr %2, align 8, !tbaa !8
  %12 = getelementptr inbounds nuw %struct.pmix_dmdx_local_t, ptr %11, i32 0, i32 3
  %13 = load ptr, ptr %12, align 8, !tbaa !460
  %14 = load ptr, ptr %2, align 8, !tbaa !8
  %15 = getelementptr inbounds nuw %struct.pmix_dmdx_local_t, ptr %14, i32 0, i32 4
  %16 = load i64, ptr %15, align 8, !tbaa !462
  call void @PMIx_Info_free(ptr noundef %13, i64 noundef %16)
  %17 = load ptr, ptr %2, align 8, !tbaa !8
  %18 = getelementptr inbounds nuw %struct.pmix_dmdx_local_t, ptr %17, i32 0, i32 3
  store ptr null, ptr %18, align 8, !tbaa !460
  br label %19

19:                                               ; preds = %10
  br label %20

20:                                               ; preds = %19, %1
  br label %21

21:                                               ; preds = %20
  call void @llvm.lifetime.start.p0(i64 8, ptr %3) #14
  br label %22

22:                                               ; preds = %49, %21
  %23 = load ptr, ptr %2, align 8, !tbaa !8
  %24 = getelementptr inbounds nuw %struct.pmix_dmdx_local_t, ptr %23, i32 0, i32 2
  %25 = call ptr @pmix_list_remove_first(ptr noundef %24)
  store ptr %25, ptr %3, align 8, !tbaa !151
  %26 = icmp ne ptr null, %25
  br i1 %26, label %27, label %50

27:                                               ; preds = %22
  br label %28

28:                                               ; preds = %27
  call void @llvm.lifetime.start.p0(i64 8, ptr %4) #14
  %29 = load ptr, ptr %3, align 8, !tbaa !151
  store ptr %29, ptr %4, align 8, !tbaa !89
  %30 = load ptr, ptr %4, align 8, !tbaa !89
  %31 = call i32 @pmix_obj_update(ptr noundef %30, i32 noundef -1)
  %32 = icmp eq i32 0, %31
  br i1 %32, label %33, label %47

33:                                               ; preds = %28
  %34 = load ptr, ptr %4, align 8, !tbaa !89
  call void @pmix_obj_run_destructors(ptr noundef %34)
  %35 = load ptr, ptr %4, align 8, !tbaa !89
  %36 = getelementptr inbounds nuw %struct.pmix_object_t, ptr %35, i32 0, i32 3
  %37 = getelementptr inbounds nuw %struct.pmix_tma, ptr %36, i32 0, i32 5
  %38 = load ptr, ptr %37, align 8, !tbaa !91
  %39 = icmp ne ptr null, %38
  br i1 %39, label %40, label %44

40:                                               ; preds = %33
  %41 = load ptr, ptr %4, align 8, !tbaa !89
  %42 = getelementptr inbounds nuw %struct.pmix_object_t, ptr %41, i32 0, i32 3
  %43 = load ptr, ptr %3, align 8, !tbaa !151
  call void @pmix_tma_free(ptr noundef %42, ptr noundef %43)
  br label %46

44:                                               ; preds = %33
  %45 = load ptr, ptr %3, align 8, !tbaa !151
  call void @free(ptr noundef %45) #14
  br label %46

46:                                               ; preds = %44, %40
  store ptr null, ptr %3, align 8, !tbaa !151
  br label %47

47:                                               ; preds = %46, %28
  call void @llvm.lifetime.end.p0(i64 8, ptr %4) #14
  br label %48

48:                                               ; preds = %47
  br label %49

49:                                               ; preds = %48
  br label %22, !llvm.loop !463

50:                                               ; preds = %22
  br label %51

51:                                               ; preds = %50
  %52 = load ptr, ptr %2, align 8, !tbaa !8
  %53 = getelementptr inbounds nuw %struct.pmix_dmdx_local_t, ptr %52, i32 0, i32 2
  call void @pmix_obj_run_destructors(ptr noundef %53)
  br label %54

54:                                               ; preds = %51
  br label %55

55:                                               ; preds = %54
  call void @llvm.lifetime.end.p0(i64 8, ptr %3) #14
  br label %56

56:                                               ; preds = %55
  ret void
}