; Function Attrs: nounwind uwtable
define internal void @lmdes(ptr noundef %0) #0 {
  %2 = getelementptr inbounds nuw i8, ptr %0, i64 680
  %3 = load ptr, ptr %2, align 8, !tbaa !407
  %.not = icmp eq ptr %3, null
  br i1 %.not, label %7, label %4

4:                                                ; preds = %1
  %5 = getelementptr inbounds nuw i8, ptr %0, i64 688
  %6 = load i64, ptr %5, align 8, !tbaa !409
  tail call void @PMIx_Info_free(ptr noundef nonnull %3, i64 noundef %6) #19
  store ptr null, ptr %2, align 8, !tbaa !407
  br label %7

7:                                                ; preds = %1, %4
  %8 = getelementptr inbounds nuw i8, ptr %0, i64 672
  %9 = load volatile i64, ptr %8, align 8, !tbaa !109
  %10 = icmp eq i64 %9, 0
  br i1 %10, label %._crit_edge, label %.lr.ph

.lr.ph:                                           ; preds = %7
  %11 = getelementptr inbounds nuw i8, ptr %0, i64 648
  br label %12

12:                                               ; preds = %.lr.ph, %45
  %13 = load volatile i64, ptr %8, align 8, !tbaa !109
  %14 = add i64 %13, -1
  store volatile i64 %14, ptr %8, align 8, !tbaa !109
  %15 = load ptr, ptr %11, align 8, !tbaa !140
  %16 = getelementptr inbounds nuw i8, ptr %15, i64 128
  %17 = load volatile ptr, ptr %16, align 8, !tbaa !108
  %18 = getelementptr inbounds nuw i8, ptr %15, i64 120
  %19 = load volatile ptr, ptr %18, align 8, !tbaa !96
  %20 = getelementptr inbounds nuw i8, ptr %19, i64 128
  store volatile ptr %17, ptr %20, align 8, !tbaa !108
  %21 = load volatile ptr, ptr %18, align 8, !tbaa !96
  store ptr %21, ptr %11, align 8, !tbaa !140
  %22 = tail call i32 @pthread_mutex_lock(ptr noundef nonnull %15) #19
  %23 = icmp eq i32 %22, 35
  br i1 %23, label %24, label %pmix_obj_update.exit

24:                                               ; preds = %12
  %25 = tail call ptr @__errno_location() #22
  store i32 35, ptr %25, align 4, !tbaa !23
  tail call void @perror(ptr noundef nonnull @.str.86) #23
  tail call void @abort() #24
  unreachable

pmix_obj_update.exit:                             ; preds = %12
  %26 = getelementptr inbounds nuw i8, ptr %15, i64 48
  %27 = load i32, ptr %26, align 8, !tbaa !78
  %28 = add nsw i32 %27, -1
  store i32 %28, ptr %26, align 8, !tbaa !78
  %29 = tail call i32 @pthread_mutex_unlock(ptr noundef nonnull %15) #19
  %30 = icmp eq i32 %28, 0
  br i1 %30, label %31, label %45

31:                                               ; preds = %pmix_obj_update.exit
  %32 = getelementptr inbounds nuw i8, ptr %15, i64 40
  %33 = load ptr, ptr %32, align 8, !tbaa !77
  %34 = getelementptr inbounds nuw i8, ptr %33, i64 48
  %35 = load ptr, ptr %34, align 8, !tbaa !88
  %36 = load ptr, ptr %35, align 8, !tbaa !80
  %.not6.i = icmp eq ptr %36, null
  br i1 %.not6.i, label %pmix_obj_run_destructors.exit, label %.lr.ph.i

.lr.ph.i:                                         ; preds = %31, %.lr.ph.i
  %37 = phi ptr [ %39, %.lr.ph.i ], [ %36, %31 ]
  %.07.i = phi ptr [ %38, %.lr.ph.i ], [ %35, %31 ]
  tail call void %37(ptr noundef nonnull %15) #19
  %38 = getelementptr inbounds nuw i8, ptr %.07.i, i64 8
  %39 = load ptr, ptr %38, align 8, !tbaa !80
  %.not.i = icmp eq ptr %39, null
  br i1 %.not.i, label %pmix_obj_run_destructors.exit, label %.lr.ph.i, !llvm.loop !89

pmix_obj_run_destructors.exit:                    ; preds = %.lr.ph.i, %31
  %40 = getelementptr inbounds nuw i8, ptr %15, i64 96
  %41 = load ptr, ptr %40, align 8, !tbaa !90
  %.not15 = icmp eq ptr %41, null
  br i1 %.not15, label %44, label %42

42:                                               ; preds = %pmix_obj_run_destructors.exit
  %43 = getelementptr inbounds nuw i8, ptr %15, i64 56
  tail call void %41(ptr noundef nonnull %43, ptr noundef nonnull %15) #19
  br label %45

44:                                               ; preds = %pmix_obj_run_destructors.exit
  tail call void @free(ptr noundef nonnull %15) #19
  br label %45

45:                                               ; preds = %42, %44, %pmix_obj_update.exit
  %46 = load volatile i64, ptr %8, align 8, !tbaa !109
  %47 = icmp eq i64 %46, 0
  br i1 %47, label %._crit_edge, label %12, !llvm.loop !410

._crit_edge:                                      ; preds = %45, %7
  %48 = getelementptr inbounds nuw i8, ptr %0, i64 408
  %49 = getelementptr inbounds nuw i8, ptr %0, i64 448
  %50 = load ptr, ptr %49, align 8, !tbaa !77
  %51 = getelementptr inbounds nuw i8, ptr %50, i64 48
  %52 = load ptr, ptr %51, align 8, !tbaa !88
  %53 = load ptr, ptr %52, align 8, !tbaa !80
  %.not6.i17 = icmp eq ptr %53, null
  br i1 %.not6.i17, label %pmix_obj_run_destructors.exit21, label %.lr.ph.i18

.lr.ph.i18:                                       ; preds = %._crit_edge, %.lr.ph.i18
  %54 = phi ptr [ %56, %.lr.ph.i18 ], [ %53, %._crit_edge ]
  %.07.i19 = phi ptr [ %55, %.lr.ph.i18 ], [ %52, %._crit_edge ]
  tail call void %54(ptr noundef nonnull %48) #19
  %55 = getelementptr inbounds nuw i8, ptr %.07.i19, i64 8
  %56 = load ptr, ptr %55, align 8, !tbaa !80
  %.not.i20 = icmp eq ptr %56, null
  br i1 %.not.i20, label %pmix_obj_run_destructors.exit21, label %.lr.ph.i18, !llvm.loop !89

pmix_obj_run_destructors.exit21:                  ; preds = %.lr.ph.i18, %._crit_edge
  ret void
}